target datalayout = "e-m:e-p270:32:32-p271:32:32-p272:64:64-i64:64-i128:128-f80:128-n8:16:32:64-S128"
target triple = "x86_64-pc-linux-gnu"

%class.FilterScriptDialog = type { %class.QDialog, ptr, ptr }
%class.QDialog = type { %class.QWidget }
%class.QWidget = type { %class.QObject, %class.QPaintDevice, ptr }
%class.QObject = type { ptr, %class.QScopedPointer }
%class.QScopedPointer = type { ptr }
%class.QPaintDevice = type { ptr, i16, ptr }
%class.Ui_FilterScriptDialog = type { ptr, ptr, ptr, ptr, ptr, ptr, ptr, ptr, ptr, ptr, ptr, ptr, ptr, ptr, ptr }

; Function Attrs: mustprogress uwtable
define void @_ZN18FilterScriptDialog28on_clearScriptButton_clickedEv(ptr noundef nonnull align 8 dereferenceable(64) %0) #5 align 2 {
  %2 = alloca ptr, align 8
  store ptr %0, ptr %2, align 8
  %3 = load ptr, ptr %2, align 8
  %4 = getelementptr inbounds %class.FilterScriptDialog, ptr %3, i32 0, i32 2
  %5 = load ptr, ptr %4, align 8
  %6 = getelementptr inbounds i8, ptr %5, i64 16
  call void @_ZN5QListI29FilterNameParameterValuesPairE5clearEv(ptr noundef nonnull align 8 dereferenceable(8) %6)
  %7 = getelementptr inbounds %class.FilterScriptDialog, ptr %3, i32 0, i32 1
  %8 = load ptr, ptr %7, align 8
  %9 = getelementptr inbounds %class.Ui_FilterScriptDialog, ptr %8, i32 0, i32 1
  %10 = load ptr, ptr %9, align 8
  call void @_ZN11QListWidget5clearEv(ptr noundef nonnull align 8 dereferenceable(48) %10)
  ret void
}