; Function Attrs: mustprogress uwtable
define void @_ZN18FilterScriptDialog28on_clearScriptButton_clickedEv(ptr nocapture noundef nonnull readonly align 8 dereferenceable(64) %0) local_unnamed_addr #9 align 2 {
  %2 = getelementptr inbounds i8, ptr %0, i64 56
  %3 = load ptr, ptr %2, align 8
  %4 = getelementptr inbounds i8, ptr %3, i64 16
  tail call void @_ZN5QListI29FilterNameParameterValuesPairE5clearEv(ptr noundef nonnull align 8 dereferenceable(8) %4)
  %5 = getelementptr inbounds i8, ptr %0, i64 48
  %6 = load ptr, ptr %5, align 8
  %7 = getelementptr inbounds i8, ptr %6, i64 8
  %8 = load ptr, ptr %7, align 8
  tail call void @_ZN11QListWidget5clearEv(ptr noundef nonnull align 8 dereferenceable(48) %8)
  ret void
}